target datalayout = "e-m:e-p270:32:32-p271:32:32-p272:64:64-i64:64-i128:128-f80:128-n8:16:32:64-S128"
target triple = "x86_64-pc-linux-gnu"

@.str.127 = private unnamed_addr constant [18 x i8] c"Simple Descriptor\00", align 1
@hf_zbee_zdp_endpoint = hidden global i32 0, align 4
@hf_zbee_zdp_profile = hidden global i32 0, align 4
@hf_zbee_zdp_simple_zll_app_device = internal global i32 0, align 4
@hf_zbee_zdp_simple_ha_app_device = internal global i32 0, align 4
@hf_zbee_zdp_simple_app_device = internal global i32 0, align 4
@hf_zbee_zdp_simple_app_version = internal global i32 0, align 4
@hf_zbee_zdp_in_count = hidden global i32 0, align 4
@ett_zbee_zdp_node_in = internal global i32 0, align 4
@.str.128 = private unnamed_addr constant [19 x i8] c"Input Cluster List\00", align 1
@hf_zbee_zdp_in_cluster = hidden global i32 0, align 4
@hf_zbee_zdp_out_count = hidden global i32 0, align 4
@ett_zbee_zdp_node_out = internal global i32 0, align 4
@.str.129 = private unnamed_addr constant [20 x i8] c"Output Cluster List\00", align 1
@hf_zbee_zdp_out_cluster = hidden global i32 0, align 4

; Function Attrs: nounwind uwtable
define hidden void @zdp_parse_simple_desc(ptr noundef %0, i32 noundef %1, ptr noundef %2, ptr noundef %3, i8 noundef zeroext %4) #0 {
  %6 = alloca ptr, align 8
  %7 = alloca i32, align 4
  %8 = alloca ptr, align 8
  %9 = alloca ptr, align 8
  %10 = alloca i8, align 1
  %11 = alloca ptr, align 8
  %12 = alloca ptr, align 8
  %13 = alloca ptr, align 8
  %14 = alloca i32, align 4
  %15 = alloca i32, align 4
  %16 = alloca i32, align 4
  %17 = alloca i32, align 4
  %18 = alloca i32, align 4
  %19 = alloca i32, align 4
  store ptr %0, ptr %6, align 8
  store i32 %1, ptr %7, align 4
  store ptr %2, ptr %8, align 8
  store ptr %3, ptr %9, align 8
  store i8 %4, ptr %10, align 1
  store ptr null, ptr %11, align 8
  store ptr null, ptr %12, align 8
  store ptr null, ptr %13, align 8
  %20 = load ptr, ptr %6, align 8
  %21 = icmp ne ptr %20, null
  br i1 %21, label %22, label %32

22:                                               ; preds = %5
  %23 = load i32, ptr %7, align 4
  %24 = icmp ne i32 %23, -1
  br i1 %24, label %25, label %32

25:                                               ; preds = %22
  %26 = load ptr, ptr %6, align 8
  %27 = load ptr, ptr %8, align 8
  %28 = load ptr, ptr %9, align 8
  %29 = load i32, ptr %28, align 4
  %30 = load i32, ptr %7, align 4
  %31 = call ptr @proto_tree_add_subtree(ptr noundef %26, ptr noundef %27, i32 noundef %29, i32 noundef -1, i32 noundef %30, ptr noundef %11, ptr noundef @.str.127)
  store ptr %31, ptr %12, align 8
  br label %34

32:                                               ; preds = %22, %5
  %33 = load ptr, ptr %6, align 8
  store ptr %33, ptr %12, align 8
  br label %34

34:                                               ; preds = %32, %25
  %35 = load ptr, ptr %12, align 8
  %36 = load i32, ptr @hf_zbee_zdp_endpoint, align 4
  %37 = load ptr, ptr %8, align 8
  %38 = load ptr, ptr %9, align 8
  %39 = load i32, ptr %38, align 4
  %40 = call ptr @proto_tree_add_item(ptr noundef %35, i32 noundef %36, ptr noundef %37, i32 noundef %39, i32 noundef 1, i32 noundef -2147483648)
  %41 = load ptr, ptr %9, align 8
  %42 = load i32, ptr %41, align 4
  %43 = add i32 %42, 1
  store i32 %43, ptr %41, align 4
  %44 = load ptr, ptr %12, align 8
  %45 = load i32, ptr @hf_zbee_zdp_profile, align 4
  %46 = load ptr, ptr %8, align 8
  %47 = load ptr, ptr %9, align 8
  %48 = load i32, ptr %47, align 4
  %49 = call ptr @proto_tree_add_item_ret_uint(ptr noundef %44, i32 noundef %45, ptr noundef %46, i32 noundef %48, i32 noundef 2, i32 noundef -2147483648, ptr noundef %17)
  %50 = load ptr, ptr %9, align 8
  %51 = load i32, ptr %50, align 4
  %52 = add i32 %51, 2
  store i32 %52, ptr %50, align 4
  %53 = load i32, ptr %17, align 4
  switch i32 %53, label %58 [
    i32 49246, label %54
    i32 260, label %56
  ]

54:                                               ; preds = %34
  %55 = load i32, ptr @hf_zbee_zdp_simple_zll_app_device, align 4
  store i32 %55, ptr %16, align 4
  br label %60

56:                                               ; preds = %34
  %57 = load i32, ptr @hf_zbee_zdp_simple_ha_app_device, align 4
  store i32 %57, ptr %16, align 4
  br label %60

58:                                               ; preds = %34
  %59 = load i32, ptr @hf_zbee_zdp_simple_app_device, align 4
  store i32 %59, ptr %16, align 4
  br label %60

60:                                               ; preds = %58, %56, %54
  %61 = load ptr, ptr %12, align 8
  %62 = load i32, ptr %16, align 4
  %63 = load ptr, ptr %8, align 8
  %64 = load ptr, ptr %9, align 8
  %65 = load i32, ptr %64, align 4
  %66 = call ptr @proto_tree_add_item(ptr noundef %61, i32 noundef %62, ptr noundef %63, i32 noundef %65, i32 noundef 2, i32 noundef -2147483648)
  %67 = load ptr, ptr %9, align 8
  %68 = load i32, ptr %67, align 4
  %69 = add i32 %68, 2
  store i32 %69, ptr %67, align 4
  %70 = load ptr, ptr %12, align 8
  %71 = load i32, ptr @hf_zbee_zdp_simple_app_version, align 4
  %72 = load ptr, ptr %8, align 8
  %73 = load ptr, ptr %9, align 8
  %74 = load i32, ptr %73, align 4
  %75 = call ptr @proto_tree_add_item(ptr noundef %70, i32 noundef %71, ptr noundef %72, i32 noundef %74, i32 noundef 1, i32 noundef -2147483648)
  %76 = load ptr, ptr %9, align 8
  %77 = load i32, ptr %76, align 4
  %78 = add i32 %77, 1
  store i32 %78, ptr %76, align 4
  %79 = load i8, ptr %10, align 1
  %80 = zext i8 %79 to i32
  %81 = icmp sge i32 %80, 2
  %82 = select i1 %81, i32 2, i32 1
  store i32 %82, ptr %15, align 4
  %83 = load ptr, ptr %12, align 8
  %84 = load i32, ptr @hf_zbee_zdp_in_count, align 4
  %85 = load ptr, ptr %8, align 8
  %86 = load ptr, ptr %9, align 8
  %87 = load i32, ptr %86, align 4
  %88 = call ptr @proto_tree_add_item_ret_uint(ptr noundef %83, i32 noundef %84, ptr noundef %85, i32 noundef %87, i32 noundef 1, i32 noundef -2147483648, ptr noundef %18)
  %89 = load ptr, ptr %9, align 8
  %90 = load i32, ptr %89, align 4
  %91 = add i32 %90, 1
  store i32 %91, ptr %89, align 4
  %92 = load ptr, ptr %6, align 8
  %93 = icmp ne ptr %92, null
  br i1 %93, label %94, label %107

94:                                               ; preds = %60
  %95 = load i32, ptr %18, align 4
  %96 = icmp ne i32 %95, 0
  br i1 %96, label %97, label %107

97:                                               ; preds = %94
  %98 = load ptr, ptr %12, align 8
  %99 = load ptr, ptr %8, align 8
  %100 = load ptr, ptr %9, align 8
  %101 = load i32, ptr %100, align 4
  %102 = load i32, ptr %18, align 4
  %103 = load i32, ptr %15, align 4
  %104 = mul i32 %102, %103
  %105 = load i32, ptr @ett_zbee_zdp_node_in, align 4
  %106 = call ptr @proto_tree_add_subtree(ptr noundef %98, ptr noundef %99, i32 noundef %101, i32 noundef %104, i32 noundef %105, ptr noundef null, ptr noundef @.str.128)
  store ptr %106, ptr %13, align 8
  br label %107

107:                                              ; preds = %97, %94, %60
  store i32 0, ptr %14, align 4
  br label %108

108:                                              ; preds = %133, %107
  %109 = load i32, ptr %14, align 4
  %110 = load i32, ptr %18, align 4
  %111 = icmp ult i32 %109, %110
  br i1 %111, label %112, label %119

112:                                              ; preds = %108
  %113 = load ptr, ptr %8, align 8
  %114 = load ptr, ptr %9, align 8
  %115 = load i32, ptr %114, align 4
  %116 = load i32, ptr %15, align 4
  %117 = call i32 @tvb_bytes_exist(ptr noundef %113, i32 noundef %115, i32 noundef %116)
  %118 = icmp ne i32 %117, 0
  br label %119

119:                                              ; preds = %112, %108
  %120 = phi i1 [ false, %108 ], [ %118, %112 ]
  br i1 %120, label %121, label %136

121:                                              ; preds = %119
  %122 = load ptr, ptr %13, align 8
  %123 = load i32, ptr @hf_zbee_zdp_in_cluster, align 4
  %124 = load ptr, ptr %8, align 8
  %125 = load ptr, ptr %9, align 8
  %126 = load i32, ptr %125, align 4
  %127 = load i32, ptr %15, align 4
  %128 = call ptr @proto_tree_add_item(ptr noundef %122, i32 noundef %123, ptr noundef %124, i32 noundef %126, i32 noundef %127, i32 noundef -2147483648)
  %129 = load i32, ptr %15, align 4
  %130 = load ptr, ptr %9, align 8
  %131 = load i32, ptr %130, align 4
  %132 = add i32 %131, %129
  store i32 %132, ptr %130, align 4
  br label %133

133:                                              ; preds = %121
  %134 = load i32, ptr %14, align 4
  %135 = add i32 %134, 1
  store i32 %135, ptr %14, align 4
  br label %108, !llvm.loop !8

136:                                              ; preds = %119
  %137 = load ptr, ptr %12, align 8
  %138 = load i32, ptr @hf_zbee_zdp_out_count, align 4
  %139 = load ptr, ptr %8, align 8
  %140 = load ptr, ptr %9, align 8
  %141 = load i32, ptr %140, align 4
  %142 = call ptr @proto_tree_add_item_ret_uint(ptr noundef %137, i32 noundef %138, ptr noundef %139, i32 noundef %141, i32 noundef 1, i32 noundef -2147483648, ptr noundef %19)
  %143 = load ptr, ptr %9, align 8
  %144 = load i32, ptr %143, align 4
  %145 = add i32 %144, 1
  store i32 %145, ptr %143, align 4
  %146 = load ptr, ptr %6, align 8
  %147 = icmp ne ptr %146, null
  br i1 %147, label %148, label %161

148:                                              ; preds = %136
  %149 = load i32, ptr %19, align 4
  %150 = icmp ne i32 %149, 0
  br i1 %150, label %151, label %161

151:                                              ; preds = %148
  %152 = load ptr, ptr %12, align 8
  %153 = load ptr, ptr %8, align 8
  %154 = load ptr, ptr %9, align 8
  %155 = load i32, ptr %154, align 4
  %156 = load i32, ptr %19, align 4
  %157 = load i32, ptr %15, align 4
  %158 = mul i32 %156, %157
  %159 = load i32, ptr @ett_zbee_zdp_node_out, align 4
  %160 = call ptr @proto_tree_add_subtree(ptr noundef %152, ptr noundef %153, i32 noundef %155, i32 noundef %158, i32 noundef %159, ptr noundef null, ptr noundef @.str.129)
  store ptr %160, ptr %13, align 8
  br label %161

161:                                              ; preds = %151, %148, %136
  store i32 0, ptr %14, align 4
  br label %162

162:                                              ; preds = %187, %161
  %163 = load i32, ptr %14, align 4
  %164 = load i32, ptr %19, align 4
  %165 = icmp ult i32 %163, %164
  br i1 %165, label %166, label %173

166:                                              ; preds = %162
  %167 = load ptr, ptr %8, align 8
  %168 = load ptr, ptr %9, align 8
  %169 = load i32, ptr %168, align 4
  %170 = load i32, ptr %15, align 4
  %171 = call i32 @tvb_bytes_exist(ptr noundef %167, i32 noundef %169, i32 noundef %170)
  %172 = icmp ne i32 %171, 0
  br label %173

173:                                              ; preds = %166, %162
  %174 = phi i1 [ false, %162 ], [ %172, %166 ]
  br i1 %174, label %175, label %190

175:                                              ; preds = %173
  %176 = load ptr, ptr %13, align 8
  %177 = load i32, ptr @hf_zbee_zdp_out_cluster, align 4
  %178 = load ptr, ptr %8, align 8
  %179 = load ptr, ptr %9, align 8
  %180 = load i32, ptr %179, align 4
  %181 = load i32, ptr %15, align 4
  %182 = call ptr @proto_tree_add_item(ptr noundef %176, i32 noundef %177, ptr noundef %178, i32 noundef %180, i32 noundef %181, i32 noundef -2147483648)
  %183 = load i32, ptr %15, align 4
  %184 = load ptr, ptr %9, align 8
  %185 = load i32, ptr %184, align 4
  %186 = add i32 %185, %183
  store i32 %186, ptr %184, align 4
  br label %187

187:                                              ; preds = %175
  %188 = load i32, ptr %14, align 4
  %189 = add i32 %188, 1
  store i32 %189, ptr %14, align 4
  br label %162, !llvm.loop !9

190:                                              ; preds = %173
  %191 = load ptr, ptr %6, align 8
  %192 = icmp ne ptr %191, null
  br i1 %192, label %193, label %200

193:                                              ; preds = %190
  %194 = load i32, ptr %7, align 4
  %195 = icmp ne i32 %194, -1
  br i1 %195, label %196, label %200

196:                                              ; preds = %193
  %197 = load ptr, ptr %11, align 8
  %198 = load ptr, ptr %9, align 8
  %199 = load i32, ptr %198, align 4
  call void @proto_item_set_len(ptr noundef %197, i32 noundef %199)
  br label %200

200:                                              ; preds = %196, %193, %190
  ret void
}