; Function Attrs: nounwind uwtable
define hidden void @zdp_parse_simple_desc(ptr noundef %0, i32 noundef %1, ptr noundef %2, ptr noundef captures(none) %3, i8 noundef zeroext %4) local_unnamed_addr #0 {
  %6 = alloca ptr, align 8
  %7 = alloca i32, align 4
  %8 = alloca i32, align 4
  %9 = alloca i32, align 4
  store ptr null, ptr %6, align 8
  %10 = icmp ne ptr %0, null
  %11 = icmp ne i32 %1, -1
  %or.cond = and i1 %10, %11
  br i1 %or.cond, label %12, label %15

12:                                               ; preds = %5
  %13 = load i32, ptr %3, align 4
  %14 = call ptr @proto_tree_add_subtree(ptr noundef nonnull %0, ptr noundef %2, i32 noundef %13, i32 noundef -1, i32 noundef %1, ptr noundef nonnull %6, ptr noundef nonnull @.str.127) #4
  br label %15

15:                                               ; preds = %5, %12
  %.076 = phi ptr [ %14, %12 ], [ %0, %5 ]
  %16 = load i32, ptr @hf_zbee_zdp_endpoint, align 4
  %17 = load i32, ptr %3, align 4
  %18 = call ptr @proto_tree_add_item(ptr noundef %.076, i32 noundef %16, ptr noundef %2, i32 noundef %17, i32 noundef 1, i32 noundef -2147483648) #4
  %19 = load i32, ptr %3, align 4
  %20 = add i32 %19, 1
  store i32 %20, ptr %3, align 4
  %21 = load i32, ptr @hf_zbee_zdp_profile, align 4
  %22 = call ptr @proto_tree_add_item_ret_uint(ptr noundef %.076, i32 noundef %21, ptr noundef %2, i32 noundef %20, i32 noundef 2, i32 noundef -2147483648, ptr noundef nonnull %7) #4
  %23 = load i32, ptr %3, align 4
  %24 = add i32 %23, 2
  store i32 %24, ptr %3, align 4
  %25 = load i32, ptr %7, align 4
  %switch.selectcmp = icmp eq i32 %25, 260
  %switch.selectcmp85 = icmp eq i32 %25, 49246
  %hf_zbee_zdp_simple_zll_app_device.val = load i32, ptr @hf_zbee_zdp_simple_zll_app_device, align 4
  %hf_zbee_zdp_simple_ha_app_device.val = load i32, ptr @hf_zbee_zdp_simple_ha_app_device, align 4
  %hf_zbee_zdp_simple_app_device.val = load i32, ptr @hf_zbee_zdp_simple_app_device, align 4
  %switch.select.val = select i1 %switch.selectcmp, i32 %hf_zbee_zdp_simple_ha_app_device.val, i32 %hf_zbee_zdp_simple_app_device.val
  %.0 = select i1 %switch.selectcmp85, i32 %hf_zbee_zdp_simple_zll_app_device.val, i32 %switch.select.val
  %26 = call ptr @proto_tree_add_item(ptr noundef %.076, i32 noundef %.0, ptr noundef %2, i32 noundef %24, i32 noundef 2, i32 noundef -2147483648) #4
  %27 = load i32, ptr %3, align 4
  %28 = add i32 %27, 2
  store i32 %28, ptr %3, align 4
  %29 = load i32, ptr @hf_zbee_zdp_simple_app_version, align 4
  %30 = call ptr @proto_tree_add_item(ptr noundef %.076, i32 noundef %29, ptr noundef %2, i32 noundef %28, i32 noundef 1, i32 noundef -2147483648) #4
  %31 = load i32, ptr %3, align 4
  %32 = add i32 %31, 1
  store i32 %32, ptr %3, align 4
  %33 = icmp ugt i8 %4, 1
  %34 = select i1 %33, i32 2, i32 1
  %35 = load i32, ptr @hf_zbee_zdp_in_count, align 4
  %36 = call ptr @proto_tree_add_item_ret_uint(ptr noundef %.076, i32 noundef %35, ptr noundef %2, i32 noundef %32, i32 noundef 1, i32 noundef -2147483648, ptr noundef nonnull %8) #4
  %37 = load i32, ptr %3, align 4
  %38 = add i32 %37, 1
  store i32 %38, ptr %3, align 4
  %39 = load i32, ptr %8, align 4
  %40 = icmp ne i32 %39, 0
  %or.cond3 = select i1 %10, i1 %40, i1 false
  br i1 %or.cond3, label %41, label %46

41:                                               ; preds = %15
  %42 = zext i1 %33 to i32
  %43 = shl i32 %39, %42
  %44 = load i32, ptr @ett_zbee_zdp_node_in, align 4
  %45 = call ptr @proto_tree_add_subtree(ptr noundef %.076, ptr noundef %2, i32 noundef %38, i32 noundef %43, i32 noundef %44, ptr noundef null, ptr noundef nonnull @.str.128) #4
  %.pre = load i32, ptr %8, align 4
  %.pre96.pre = load i32, ptr %3, align 4
  br label %46

46:                                               ; preds = %41, %15
  %.pre96 = phi i32 [ %.pre96.pre, %41 ], [ %38, %15 ]
  %47 = phi i32 [ %.pre, %41 ], [ %39, %15 ]
  %.078 = phi ptr [ %45, %41 ], [ null, %15 ]
  %.not92 = icmp eq i32 %47, 0
  br i1 %.not92, label %.critedge, label %.lr.ph

.lr.ph:                                           ; preds = %46, %50
  %48 = phi i32 [ %54, %50 ], [ %.pre96, %46 ]
  %.07787 = phi i32 [ %55, %50 ], [ 0, %46 ]
  %49 = call i32 @tvb_bytes_exist(ptr noundef %2, i32 noundef %48, i32 noundef %34) #4
  %.not = icmp eq i32 %49, 0
  %.pre95.pre = load i32, ptr %3, align 4
  br i1 %.not, label %.critedge, label %50

50:                                               ; preds = %.lr.ph
  %51 = load i32, ptr @hf_zbee_zdp_in_cluster, align 4
  %52 = call ptr @proto_tree_add_item(ptr noundef %.078, i32 noundef %51, ptr noundef %2, i32 noundef %.pre95.pre, i32 noundef %34, i32 noundef -2147483648) #4
  %53 = load i32, ptr %3, align 4
  %54 = add i32 %53, %34
  store i32 %54, ptr %3, align 4
  %55 = add nuw i32 %.07787, 1
  %56 = load i32, ptr %8, align 4
  %57 = icmp ult i32 %55, %56
  br i1 %57, label %.lr.ph, label %.critedge, !llvm.loop !8

.critedge:                                        ; preds = %.lr.ph, %50, %46
  %58 = phi i32 [ %.pre96, %46 ], [ %.pre95.pre, %.lr.ph ], [ %54, %50 ]
  %59 = load i32, ptr @hf_zbee_zdp_out_count, align 4
  %60 = call ptr @proto_tree_add_item_ret_uint(ptr noundef %.076, i32 noundef %59, ptr noundef %2, i32 noundef %58, i32 noundef 1, i32 noundef -2147483648, ptr noundef nonnull %9) #4
  %61 = load i32, ptr %3, align 4
  %62 = add i32 %61, 1
  store i32 %62, ptr %3, align 4
  %63 = load i32, ptr %9, align 4
  %64 = icmp ne i32 %63, 0
  %or.cond5 = select i1 %10, i1 %64, i1 false
  br i1 %or.cond5, label %65, label %70

65:                                               ; preds = %.critedge
  %66 = zext i1 %33 to i32
  %67 = shl i32 %63, %66
  %68 = load i32, ptr @ett_zbee_zdp_node_out, align 4
  %69 = call ptr @proto_tree_add_subtree(ptr noundef %.076, ptr noundef %2, i32 noundef %62, i32 noundef %67, i32 noundef %68, ptr noundef null, ptr noundef nonnull @.str.129) #4
  %.pre97 = load i32, ptr %9, align 4
  br label %70

70:                                               ; preds = %65, %.critedge
  %71 = phi i32 [ %.pre97, %65 ], [ %63, %.critedge ]
  %.179 = phi ptr [ %69, %65 ], [ %.078, %.critedge ]
  %.not93 = icmp eq i32 %71, 0
  br i1 %.not93, label %.critedge7, label %.lr.ph90.preheader

.lr.ph90.preheader:                               ; preds = %70
  %.pre98 = load i32, ptr %3, align 4
  br label %.lr.ph90

.lr.ph90:                                         ; preds = %.lr.ph90.preheader, %74
  %72 = phi i32 [ %79, %74 ], [ %.pre98, %.lr.ph90.preheader ]
  %.189 = phi i32 [ %80, %74 ], [ 0, %.lr.ph90.preheader ]
  %73 = call i32 @tvb_bytes_exist(ptr noundef %2, i32 noundef %72, i32 noundef %34) #4
  %.not84 = icmp eq i32 %73, 0
  br i1 %.not84, label %.critedge7, label %74

74:                                               ; preds = %.lr.ph90
  %75 = load i32, ptr @hf_zbee_zdp_out_cluster, align 4
  %76 = load i32, ptr %3, align 4
  %77 = call ptr @proto_tree_add_item(ptr noundef %.179, i32 noundef %75, ptr noundef %2, i32 noundef %76, i32 noundef %34, i32 noundef -2147483648) #4
  %78 = load i32, ptr %3, align 4
  %79 = add i32 %78, %34
  store i32 %79, ptr %3, align 4
  %80 = add nuw i32 %.189, 1
  %81 = load i32, ptr %9, align 4
  %82 = icmp ult i32 %80, %81
  br i1 %82, label %.lr.ph90, label %.critedge7, !llvm.loop !9

.critedge7:                                       ; preds = %.lr.ph90, %74, %70
  br i1 %or.cond, label %83, label %86

83:                                               ; preds = %.critedge7
  %84 = load ptr, ptr %6, align 8
  %85 = load i32, ptr %3, align 4
  call void @proto_item_set_len(ptr noundef %84, i32 noundef %85) #4
  br label %86

86:                                               ; preds = %83, %.critedge7
  ret void
}